; Function Attrs: mustprogress nofree norecurse nosync nounwind willreturn memory(read, inaccessiblemem: none) uwtable
define noundef zeroext i1 @_ZNK4YAML12EmitterState15CurGroupLongKeyEv(ptr noundef nonnull readonly align 8 captures(none) dereferenceable(224) %0) local_unnamed_addr #6 align 2 {
  %2 = getelementptr inbounds nuw i8, ptr %0, i64 176
  %3 = load ptr, ptr %2, align 8, !tbaa !97
  %4 = getelementptr inbounds nuw i8, ptr %0, i64 184
  %5 = load ptr, ptr %4, align 8, !tbaa !97
  %6 = icmp eq ptr %3, %5
  br i1 %6, label %13, label %7

7:                                                ; preds = %1
  %8 = getelementptr inbounds i8, ptr %5, i64 -8
  %9 = load ptr, ptr %8, align 8, !tbaa !89
  %10 = getelementptr inbounds nuw i8, ptr %9, i64 24
  %11 = load i8, ptr %10, align 8, !tbaa !98, !range !116, !noundef !117
  %12 = trunc nuw i8 %11 to i1
  br label %13

13:                                               ; preds = %1, %7
  %14 = phi i1 [ %12, %7 ], [ false, %1 ]
  ret i1 %14
}